(ideluge.core.torrentmanager
TorrentManagerState
p1
(dp2
S'torrents'
p3
(lp4
(ideluge.core.torrentmanager
TorrentState
p5
(dp6
S'max_download_speed'
p7
F-1
sS'move_completed_path'
p8
S'/Users/grimlock/Downloads'
p9
sS'paused'
p10
I00
sS'max_upload_slots'
p11
I-1
sS'prioritize_first_last'
p12
I00
sS'max_connections'
p13
I-1
sS'compact'
p14
I00
sS'queue'
p15
I-1
sS'file_priorities'
p16
(lp17
I1
aI1
asS'filename'
p18
S'kali-linux-1.0.6-vm-i486.torrent'
p19
sS'max_upload_speed'
p20
F-1
sS'save_path'
p21
S'/Users/grimlock/Downloads'
p22
sS'time_added'
p23
F1650058319.7708919
sS'total_uploaded'
p24
L0L
sS'torrent_id'
p25
S'623a1a75c62ae3f1e804bdce1b260120153922ca'
p26
sS'auto_managed'
p27
I01
sS'stop_at_ratio'
p28
I00
sS'move_completed'
p29
I00
sS'trackers'
p30
(lp31
(dp32
S'send_stats'
p33
I01
sS'fails'
p34
I0
sS'verified'
p35
I00
sS'min_announce'
p36
NsS'url'
p37
S'http://tracker.backtrack-linux.org/trac/announce.php'
p38
sS'fail_limit'
p39
I0
sS'next_announce'
p40
NsS'complete_sent'
p41
I00
sS'source'
p42
I1
sS'start_sent'
p43
I00
sS'tier'
p44
I0
sS'updating'
p45
I00
sasS'magnet'
p46
NsS'remove_at_ratio'
p47
I00
sS'stop_ratio'
p48
F2
sS'is_finished'
p49
I01
sbasb.